target datalayout = "e-m:e-p270:32:32-p271:32:32-p272:64:64-i64:64-i128:128-f80:128-n8:16:32:64-S128"
target triple = "x86_64-pc-linux-gnu"

%struct.H5G_link_table_t = type { i64, ptr }
%struct.H5O_link_t = type { i32, i8, i64, i32, ptr, %union.anon }
%union.anon = type { %struct.H5O_link_ud_t }
%struct.H5O_link_ud_t = type { ptr, i64 }
%struct.H5G_iter_bt_t = type { ptr, i64 }

@H5G_init_g = external global i8, align 1
@H5_libterm_g = external global i8, align 1
@.str = private unnamed_addr constant [104 x i8] c"generated/home/dtcxzyw/WorkSpace/Projects/compilers/llvm-opt-benchmark/bench/hdf5/hdf5/src/H5Gcompact.c\00", align 1
@H5E_SYM_g = external global i64, align 8
@H5E_CANTCOPY_g = external global i64, align 8
@.str.8 = private unnamed_addr constant [24 x i8] c"can't copy link message\00", align 1
@__func__.H5G__compact_build_table_cb = private unnamed_addr constant [28 x i8] c"H5G__compact_build_table_cb\00", align 1

; Function Attrs: nounwind uwtable
define internal i32 @H5G__compact_build_table_cb(ptr noundef %0, i32 noundef %1, ptr noundef %2) #0 {
  %4 = alloca ptr, align 8
  %5 = alloca i32, align 4
  %6 = alloca ptr, align 8
  %7 = alloca ptr, align 8
  %8 = alloca ptr, align 8
  %9 = alloca i32, align 4
  %10 = alloca i8, align 1
  store ptr %0, ptr %4, align 8, !tbaa !30
  store i32 %1, ptr %5, align 4, !tbaa !10
  store ptr %2, ptr %6, align 8, !tbaa !30
  call void @llvm.lifetime.start.p0(i64 8, ptr %7) #8
  %11 = load ptr, ptr %4, align 8, !tbaa !30
  store ptr %11, ptr %7, align 8, !tbaa !8
  call void @llvm.lifetime.start.p0(i64 8, ptr %8) #8
  %12 = load ptr, ptr %6, align 8, !tbaa !30
  store ptr %12, ptr %8, align 8, !tbaa !30
  call void @llvm.lifetime.start.p0(i64 4, ptr %9) #8
  store i32 0, ptr %9, align 4, !tbaa !10
  call void @llvm.lifetime.start.p0(i64 1, ptr %10) #8
  store i8 0, ptr %10, align 1, !tbaa !12
  %13 = load i8, ptr @H5G_init_g, align 1, !tbaa !12, !range !14, !noundef !15
  %14 = trunc i8 %13 to i1
  br i1 %14, label %19, label %15

15:                                               ; preds = %3
  %16 = load i8, ptr @H5_libterm_g, align 1, !tbaa !12, !range !14, !noundef !15
  %17 = trunc i8 %16 to i1
  %18 = xor i1 %17, true
  br label %19

19:                                               ; preds = %15, %3
  %20 = phi i1 [ true, %3 ], [ %18, %15 ]
  %21 = xor i1 %20, true
  %22 = xor i1 %21, true
  %23 = zext i1 %22 to i32
  %24 = sext i32 %23 to i64
  %25 = call i64 @llvm.expect.i64(i64 %24, i64 1)
  %26 = icmp ne i64 %25, 0
  br i1 %26, label %27, label %65

27:                                               ; preds = %19
  %28 = load ptr, ptr %7, align 8, !tbaa !8
  %29 = load ptr, ptr %8, align 8, !tbaa !30
  %30 = getelementptr inbounds nuw %struct.H5G_iter_bt_t, ptr %29, i32 0, i32 0
  %31 = load ptr, ptr %30, align 8, !tbaa !33
  %32 = getelementptr inbounds nuw %struct.H5G_link_table_t, ptr %31, i32 0, i32 1
  %33 = load ptr, ptr %32, align 8, !tbaa !26
  %34 = load ptr, ptr %8, align 8, !tbaa !30
  %35 = getelementptr inbounds nuw %struct.H5G_iter_bt_t, ptr %34, i32 0, i32 1
  %36 = load i64, ptr %35, align 8, !tbaa !35
  %37 = getelementptr inbounds nuw %struct.H5O_link_t, ptr %33, i64 %36
  %38 = call ptr @H5O_msg_copy(i32 noundef 6, ptr noundef %28, ptr noundef %37)
  %39 = icmp eq ptr null, %38
  br i1 %39, label %40, label %59

40:                                               ; preds = %27
  br label %41

41:                                               ; preds = %40
  br label %42

42:                                               ; preds = %41
  br label %43

43:                                               ; preds = %42
  %44 = load i64, ptr @H5E_SYM_g, align 8, !tbaa !16
  %45 = load i64, ptr @H5E_CANTCOPY_g, align 8, !tbaa !16
  %46 = call i32 (ptr, ptr, i32, i64, i64, ptr, ...) @H5E_printf_stack(ptr noundef @.str, ptr noundef @__func__.H5G__compact_build_table_cb, i32 noundef 89, i64 noundef %44, i64 noundef %45, ptr noundef @.str.8)
  br label %47

47:                                               ; preds = %43
  br label %48

48:                                               ; preds = %47
  store i8 1, ptr %10, align 1, !tbaa !12
  %49 = load i8, ptr %10, align 1, !tbaa !12, !range !14, !noundef !15
  %50 = trunc i8 %49 to i1
  %51 = zext i1 %50 to i8
  store i8 %51, ptr %10, align 1, !tbaa !12
  br label %52

52:                                               ; preds = %48
  br label %53

53:                                               ; preds = %52
  br label %54

54:                                               ; preds = %53
  store i32 -1, ptr %9, align 4, !tbaa !10
  br label %64

55:                                               ; No predecessors!
  br label %56

56:                                               ; preds = %55
  br label %57

57:                                               ; preds = %56
  br label %58

58:                                               ; preds = %57
  br label %59

59:                                               ; preds = %58, %27
  %60 = load ptr, ptr %8, align 8, !tbaa !30
  %61 = getelementptr inbounds nuw %struct.H5G_iter_bt_t, ptr %60, i32 0, i32 1
  %62 = load i64, ptr %61, align 8, !tbaa !35
  %63 = add i64 %62, 1
  store i64 %63, ptr %61, align 8, !tbaa !35
  br label %64

64:                                               ; preds = %59, %54
  br label %65

65:                                               ; preds = %64, %19
  %66 = load i32, ptr %9, align 4, !tbaa !10
  call void @llvm.lifetime.end.p0(i64 1, ptr %10) #8
  call void @llvm.lifetime.end.p0(i64 4, ptr %9) #8
  call void @llvm.lifetime.end.p0(i64 8, ptr %8) #8
  call void @llvm.lifetime.end.p0(i64 8, ptr %7) #8
  ret i32 %66
}