; Function Attrs: nounwind uwtable
define internal range(i32 -1, 1) i32 @H5G__compact_build_table_cb(ptr noundef %0, i32 %1, ptr noundef captures(none) %2) #0 {
  %4 = load i8, ptr @H5G_init_g, align 1, !tbaa !3, !range !7, !noundef !8
  %5 = trunc nuw i8 %4 to i1
  %6 = load i8, ptr @H5_libterm_g, align 1, !range !7
  %7 = trunc nuw i8 %6 to i1
  %8 = xor i1 %7, true
  %9 = select i1 %5, i1 true, i1 %8
  br i1 %9, label %10, label %26, !prof !9

10:                                               ; preds = %3
  %11 = load ptr, ptr %2, align 8, !tbaa !24
  %12 = getelementptr inbounds nuw i8, ptr %11, i64 8
  %13 = load ptr, ptr %12, align 8, !tbaa !16
  %14 = getelementptr inbounds nuw i8, ptr %2, i64 8
  %15 = load i64, ptr %14, align 8, !tbaa !26
  %16 = getelementptr inbounds nuw %struct.H5O_link_t, ptr %13, i64 %15
  %17 = tail call ptr @H5O_msg_copy(i32 noundef 6, ptr noundef %0, ptr noundef %16) #8
  %18 = icmp eq ptr %17, null
  br i1 %18, label %19, label %23

19:                                               ; preds = %10
  %20 = load i64, ptr @H5E_SYM_g, align 8, !tbaa !10
  %21 = load i64, ptr @H5E_CANTCOPY_g, align 8, !tbaa !10
  %22 = tail call i32 (ptr, ptr, i32, i64, i64, ptr, ...) @H5E_printf_stack(ptr noundef nonnull @.str, ptr noundef nonnull @__func__.H5G__compact_build_table_cb, i32 noundef 89, i64 noundef %20, i64 noundef %21, ptr noundef nonnull @.str.8) #8
  br label %26

23:                                               ; preds = %10
  %24 = load i64, ptr %14, align 8, !tbaa !26
  %25 = add i64 %24, 1
  store i64 %25, ptr %14, align 8, !tbaa !26
  br label %26

26:                                               ; preds = %19, %23, %3
  %.0 = phi i32 [ -1, %19 ], [ 0, %23 ], [ 0, %3 ]
  ret i32 %.0
}